; ModuleID = '47/4505.c'
source_filename = "47/4505.c"
target datalayout = "e-m:e-p270:32:32-p271:32:32-p272:64:64-i64:64-f80:128-n8:16:32:64-S128"
target triple = "x86_64-pc-linux-gnu"

@.str = private unnamed_addr constant [3 x i8] c"%d\00", align 1
@.str.1 = private unnamed_addr constant [4 x i8] c"%d \00", align 1

; Function Attrs: noinline nounwind uwtable
define dso_local i32 @main() #0 {
  %1 = alloca i32, align 4
  %2 = alloca [200 x i32], align 16
  %3 = alloca i32, align 4
  %4 = alloca i32, align 4
  %5 = alloca [200 x i32], align 16
  store i32 0, i32* %1, align 4
  %6 = call i32 (i8*, ...) @__isoc99_scanf(i8* getelementptr inbounds ([3 x i8], [3 x i8]* @.str, i64 0, i64 0), i32* %4)
  store i32 0, i32* %3, align 4
  br label %7

7:                                                ; preds = %26, %0
  %8 = load i32, i32* %3, align 4
  %9 = load i32, i32* %4, align 4
  %10 = icmp slt i32 %8, %9
  br i1 %10, label %11, label %29

11:                                               ; preds = %7
  %12 = load i32, i32* %3, align 4
  %13 = load i32, i32* %4, align 4
  %14 = sub nsw i32 %13, 1
  %15 = icmp eq i32 %12, %14
  br i1 %15, label %16, label %21

16:                                               ; preds = %11
  %17 = load i32, i32* %3, align 4
  %18 = sext i32 %17 to i64
  %19 = getelementptr inbounds [200 x i32], [200 x i32]* %2, i64 0, i64 %18
  %20 = call i32 (i8*, ...) @__isoc99_scanf(i8* getelementptr inbounds ([3 x i8], [3 x i8]* @.str, i64 0, i64 0), i32* %19)
  br label %29

21:                                               ; preds = %11
  %22 = load i32, i32* %3, align 4
  %23 = sext i32 %22 to i64
  %24 = getelementptr inbounds [200 x i32], [200 x i32]* %2, i64 0, i64 %23
  %25 = call i32 (i8*, ...) @__isoc99_scanf(i8* getelementptr inbounds ([4 x i8], [4 x i8]* @.str.1, i64 0, i64 0), i32* %24)
  br label %26

26:                                               ; preds = %21
  %27 = load i32, i32* %3, align 4
  %28 = add nsw i32 %27, 1
  store i32 %28, i32* %3, align 4
  br label %7

29:                                               ; preds = %16, %7
  store i32 0, i32* %3, align 4
  br label %30

30:                                               ; preds = %45, %29
  %31 = load i32, i32* %3, align 4
  %32 = load i32, i32* %4, align 4
  %33 = icmp slt i32 %31, %32
  br i1 %33, label %34, label %48

34:                                               ; preds = %30
  %35 = load i32, i32* %3, align 4
  %36 = sext i32 %35 to i64
  %37 = getelementptr inbounds [200 x i32], [200 x i32]* %2, i64 0, i64 %36
  %38 = load i32, i32* %37, align 4
  %39 = load i32, i32* %4, align 4
  %40 = sub nsw i32 %39, 1
  %41 = load i32, i32* %3, align 4
  %42 = sub nsw i32 %40, %41
  %43 = sext i32 %42 to i64
  %44 = getelementptr inbounds [200 x i32], [200 x i32]* %5, i64 0, i64 %43
  store i32 %38, i32* %44, align 4
  br label %45

45:                                               ; preds = %34
  %46 = load i32, i32* %3, align 4
  %47 = add nsw i32 %46, 1
  store i32 %47, i32* %3, align 4
  br label %30

48:                                               ; preds = %30
  store i32 0, i32* %3, align 4
  br label %49

49:                                               ; preds = %70, %48
  %50 = load i32, i32* %3, align 4
  %51 = load i32, i32* %4, align 4
  %52 = icmp slt i32 %50, %51
  br i1 %52, label %53, label %73

53:                                               ; preds = %49
  %54 = load i32, i32* %3, align 4
  %55 = load i32, i32* %4, align 4
  %56 = sub nsw i32 %55, 1
  %57 = icmp eq i32 %54, %56
  br i1 %57, label %58, label %64

58:                                               ; preds = %53
  %59 = load i32, i32* %3, align 4
  %60 = sext i32 %59 to i64
  %61 = getelementptr inbounds [200 x i32], [200 x i32]* %5, i64 0, i64 %60
  %62 = load i32, i32* %61, align 4
  %63 = call i32 (i8*, ...) @printf(i8* getelementptr inbounds ([3 x i8], [3 x i8]* @.str, i64 0, i64 0), i32 %62)
  br label %73

64:                                               ; preds = %53
  %65 = load i32, i32* %3, align 4
  %66 = sext i32 %65 to i64
  %67 = getelementptr inbounds [200 x i32], [200 x i32]* %5, i64 0, i64 %66
  %68 = load i32, i32* %67, align 4
  %69 = call i32 (i8*, ...) @printf(i8* getelementptr inbounds ([4 x i8], [4 x i8]* @.str.1, i64 0, i64 0), i32 %68)
  br label %70

70:                                               ; preds = %64
  %71 = load i32, i32* %3, align 4
  %72 = add nsw i32 %71, 1
  store i32 %72, i32* %3, align 4
  br label %49

73:                                               ; preds = %58, %49
  ret i32 0
}

declare dso_local i32 @__isoc99_scanf(i8*, ...) #1

declare dso_local i32 @printf(i8*, ...) #1


!llvm.module.flags = !{!0}
!llvm.ident = !{!1}

!0 = !{i32 1, !"wchar_size", i32 4}
!1 = !{!"clang version 10.0.0-4ubuntu1 "}
